target datalayout = "e-m:e-p270:32:32-p271:32:32-p272:64:64-i64:64-i128:128-f80:128-n8:16:32:64-S128"
target triple = "x86_64-unknown-linux-gnu"

%struct.ecc_set_type = type { i32, i32, ptr, ptr, ptr, ptr, ptr, ptr, ptr, ptr, i32, i32, i32 }
%struct.ecc_key = type { i32, i32, i32, i32, ptr, ptr, %struct.ecc_point, [1 x %struct.sp_int], ptr }
%struct.ecc_point = type { [1 x %struct.sp_int], [1 x %struct.sp_int], [1 x %struct.sp_int] }
%struct.sp_int = type { i32, i32, [129 x i64] }
%struct.ecc_curve_spec = type { ptr, ptr, ptr, ptr, ptr, ptr, ptr, i32, i32, i8 }

; Function Attrs: nounwind uwtable
define i32 @wc_ecc_set_curve(ptr noundef %key, i32 noundef %keysize, i32 noundef %curve_id) #0 {
entry:
  %retval = alloca i32, align 4
  %key.addr = alloca ptr, align 8
  %keysize.addr = alloca i32, align 4
  %curve_id.addr = alloca i32, align 4
  %x = alloca i32, align 4
  store ptr %key, ptr %key.addr, align 8
  store i32 %keysize, ptr %keysize.addr, align 4
  store i32 %curve_id, ptr %curve_id.addr, align 4
  %0 = load ptr, ptr %key.addr, align 8
  %cmp = icmp eq ptr %0, null
  br i1 %cmp, label %if.then, label %lor.lhs.false

lor.lhs.false:                                    ; preds = %entry
  %1 = load i32, ptr %keysize.addr, align 4
  %cmp1 = icmp sle i32 %1, 0
  br i1 %cmp1, label %land.lhs.true, label %if.end

land.lhs.true:                                    ; preds = %lor.lhs.false
  %2 = load i32, ptr %curve_id.addr, align 4
  %cmp2 = icmp slt i32 %2, 0
  br i1 %cmp2, label %if.then, label %if.end

if.then:                                          ; preds = %land.lhs.true, %entry
  store i32 -173, ptr %retval, align 4
  br label %return

if.end:                                           ; preds = %land.lhs.true, %lor.lhs.false
  %3 = load i32, ptr %keysize.addr, align 4
  %cmp3 = icmp sgt i32 %3, 66
  br i1 %cmp3, label %if.then4, label %if.end5

if.then4:                                         ; preds = %if.end
  store i32 -170, ptr %retval, align 4
  br label %return

if.end5:                                          ; preds = %if.end
  %4 = load ptr, ptr %key.addr, align 8
  %idx = getelementptr inbounds %struct.ecc_key, ptr %4, i32 0, i32 1
  %5 = load i32, ptr %idx, align 4
  %cmp6 = icmp ne i32 %5, -1
  br i1 %cmp6, label %if.then7, label %if.end34

if.then7:                                         ; preds = %if.end5
  %6 = load ptr, ptr %key.addr, align 8
  %idx8 = getelementptr inbounds %struct.ecc_key, ptr %6, i32 0, i32 1
  store i32 0, ptr %idx8, align 4
  %7 = load ptr, ptr %key.addr, align 8
  %dp = getelementptr inbounds %struct.ecc_key, ptr %7, i32 0, i32 4
  store ptr null, ptr %dp, align 8
  store i32 0, ptr %x, align 4
  br label %for.cond

for.cond:                                         ; preds = %for.inc, %if.then7
  %8 = load i32, ptr %x, align 4
  %idxprom = sext i32 %8 to i64
  %arrayidx = getelementptr inbounds [6 x %struct.ecc_set_type], ptr @ecc_sets, i64 0, i64 %idxprom
  %size = getelementptr inbounds %struct.ecc_set_type, ptr %arrayidx, i32 0, i32 0
  %9 = load i32, ptr %size, align 8
  %cmp9 = icmp ne i32 %9, 0
  br i1 %cmp9, label %for.body, label %for.end

for.body:                                         ; preds = %for.cond
  %10 = load i32, ptr %curve_id.addr, align 4
  %cmp10 = icmp sgt i32 %10, 0
  br i1 %cmp10, label %if.then11, label %if.else

if.then11:                                        ; preds = %for.body
  %11 = load i32, ptr %curve_id.addr, align 4
  %12 = load i32, ptr %x, align 4
  %idxprom12 = sext i32 %12 to i64
  %arrayidx13 = getelementptr inbounds [6 x %struct.ecc_set_type], ptr @ecc_sets, i64 0, i64 %idxprom12
  %id = getelementptr inbounds %struct.ecc_set_type, ptr %arrayidx13, i32 0, i32 1
  %13 = load i32, ptr %id, align 4
  %cmp14 = icmp eq i32 %11, %13
  br i1 %cmp14, label %if.then15, label %if.end16

if.then15:                                        ; preds = %if.then11
  br label %for.end

if.end16:                                         ; preds = %if.then11
  br label %if.end23

if.else:                                          ; preds = %for.body
  %14 = load i32, ptr %keysize.addr, align 4
  %15 = load i32, ptr %x, align 4
  %idxprom17 = sext i32 %15 to i64
  %arrayidx18 = getelementptr inbounds [6 x %struct.ecc_set_type], ptr @ecc_sets, i64 0, i64 %idxprom17
  %size19 = getelementptr inbounds %struct.ecc_set_type, ptr %arrayidx18, i32 0, i32 0
  %16 = load i32, ptr %size19, align 8
  %cmp20 = icmp sle i32 %14, %16
  br i1 %cmp20, label %if.then21, label %if.end22

if.then21:                                        ; preds = %if.else
  br label %for.end

if.end22:                                         ; preds = %if.else
  br label %if.end23

if.end23:                                         ; preds = %if.end22, %if.end16
  br label %for.inc

for.inc:                                          ; preds = %if.end23
  %17 = load i32, ptr %x, align 4
  %inc = add nsw i32 %17, 1
  store i32 %inc, ptr %x, align 4
  br label %for.cond, !llvm.loop !6

for.end:                                          ; preds = %if.then21, %if.then15, %for.cond
  %18 = load i32, ptr %x, align 4
  %idxprom24 = sext i32 %18 to i64
  %arrayidx25 = getelementptr inbounds [6 x %struct.ecc_set_type], ptr @ecc_sets, i64 0, i64 %idxprom24
  %size26 = getelementptr inbounds %struct.ecc_set_type, ptr %arrayidx25, i32 0, i32 0
  %19 = load i32, ptr %size26, align 8
  %cmp27 = icmp eq i32 %19, 0
  br i1 %cmp27, label %if.then28, label %if.end29

if.then28:                                        ; preds = %for.end
  br label %do.body

do.body:                                          ; preds = %if.then28
  br label %do.end

do.end:                                           ; preds = %do.body
  store i32 -172, ptr %retval, align 4
  br label %return

if.end29:                                         ; preds = %for.end
  %20 = load i32, ptr %x, align 4
  %21 = load ptr, ptr %key.addr, align 8
  %idx30 = getelementptr inbounds %struct.ecc_key, ptr %21, i32 0, i32 1
  store i32 %20, ptr %idx30, align 4
  %22 = load i32, ptr %x, align 4
  %idxprom31 = sext i32 %22 to i64
  %arrayidx32 = getelementptr inbounds [6 x %struct.ecc_set_type], ptr @ecc_sets, i64 0, i64 %idxprom31
  %23 = load ptr, ptr %key.addr, align 8
  %dp33 = getelementptr inbounds %struct.ecc_key, ptr %23, i32 0, i32 4
  store ptr %arrayidx32, ptr %dp33, align 8
  br label %if.end34

if.end34:                                         ; preds = %if.end29, %if.end5
  store i32 0, ptr %retval, align 4
  br label %return

return:                                           ; preds = %if.end34, %do.end, %if.then4, %if.then
  %24 = load i32, ptr %retval, align 4
  ret i32 %24
}

; Function Attrs: nounwind uwtable
define internal void @wc_ecc_reset(ptr noundef %key) #0 {
entry:
  %key.addr = alloca ptr, align 8
  store ptr %key, ptr %key.addr, align 8
  %0 = load ptr, ptr %key.addr, align 8
  %state = getelementptr inbounds %struct.ecc_key, ptr %0, i32 0, i32 2
  store i32 0, ptr %state, align 8
  ret void
}

; Function Attrs: nounwind uwtable
define internal i32 @_ecc_make_key_ex(ptr noundef %rng, i32 noundef %keysize, ptr noundef %key, i32 noundef %curve_id, i32 noundef %flags) #0 {
entry:
  %retval = alloca i32, align 4
  %rng.addr = alloca ptr, align 8
  %keysize.addr = alloca i32, align 4
  %key.addr = alloca ptr, align 8
  %curve_id.addr = alloca i32, align 4
  %flags.addr = alloca i32, align 4
  %err = alloca i32, align 4
  %spec_ints = alloca [800 x i8], align 16
  %curve_lcl = alloca %struct.ecc_curve_spec, align 8
  %curve = alloca ptr, align 8
  store ptr %rng, ptr %rng.addr, align 8
  store i32 %keysize, ptr %keysize.addr, align 4
  store ptr %key, ptr %key.addr, align 8
  store i32 %curve_id, ptr %curve_id.addr, align 4
  store i32 %flags, ptr %flags.addr, align 4
  store i32 0, ptr %err, align 4
  %0 = load ptr, ptr %key.addr, align 8
  %cmp = icmp eq ptr %0, null
  br i1 %cmp, label %if.then, label %lor.lhs.false

lor.lhs.false:                                    ; preds = %entry
  %1 = load ptr, ptr %rng.addr, align 8
  %cmp1 = icmp eq ptr %1, null
  br i1 %cmp1, label %if.then, label %if.end

if.then:                                          ; preds = %lor.lhs.false, %entry
  store i32 -173, ptr %retval, align 4
  br label %return

if.end:                                           ; preds = %lor.lhs.false
  %2 = load ptr, ptr %key.addr, align 8
  call void @wc_ecc_reset(ptr noundef %2)
  %3 = load ptr, ptr %key.addr, align 8
  %4 = load i32, ptr %keysize.addr, align 4
  %5 = load i32, ptr %curve_id.addr, align 4
  %call = call i32 @wc_ecc_set_curve(ptr noundef %3, i32 noundef %4, i32 noundef %5)
  store i32 %call, ptr %err, align 4
  %6 = load i32, ptr %err, align 4
  %cmp2 = icmp ne i32 %6, 0
  br i1 %cmp2, label %if.then3, label %if.end4

if.then3:                                         ; preds = %if.end
  %7 = load i32, ptr %err, align 4
  store i32 %7, ptr %retval, align 4
  br label %return

if.end4:                                          ; preds = %if.end
  %8 = load i32, ptr %flags.addr, align 4
  %conv = trunc i32 %8 to i8
  %conv5 = zext i8 %conv to i32
  %9 = load ptr, ptr %key.addr, align 8
  %flags6 = getelementptr inbounds %struct.ecc_key, ptr %9, i32 0, i32 3
  store i32 %conv5, ptr %flags6, align 4
  store ptr %curve_lcl, ptr %curve, align 8
  %10 = load ptr, ptr %curve, align 8
  call void @llvm.memset.p0.i64(ptr align 8 %10, i8 0, i64 72, i1 false)
  %arraydecay = getelementptr inbounds [800 x i8], ptr %spec_ints, i64 0, i64 0
  %11 = load ptr, ptr %curve, align 8
  %spec_ints7 = getelementptr inbounds %struct.ecc_curve_spec, ptr %11, i32 0, i32 6
  store ptr %arraydecay, ptr %spec_ints7, align 8
  %12 = load ptr, ptr %curve, align 8
  %spec_count = getelementptr inbounds %struct.ecc_curve_spec, ptr %12, i32 0, i32 7
  store i32 5, ptr %spec_count, align 8
  %13 = load ptr, ptr %key.addr, align 8
  %k = getelementptr inbounds %struct.ecc_key, ptr %13, i32 0, i32 7
  %arraydecay8 = getelementptr inbounds [1 x %struct.sp_int], ptr %k, i64 0, i64 0
  %call9 = call i32 @sp_init(ptr noundef %arraydecay8)
  store i32 %call9, ptr %err, align 4
  %14 = load i32, ptr %err, align 4
  %cmp10 = icmp eq i32 %14, 0
  br i1 %cmp10, label %if.then12, label %if.end13

if.then12:                                        ; preds = %if.end4
  br label %do.body

do.body:                                          ; preds = %if.then12
  br label %do.end

do.end:                                           ; preds = %do.body
  br label %if.end13

if.end13:                                         ; preds = %do.end, %if.end4
  %15 = load i32, ptr %err, align 4
  %cmp14 = icmp eq i32 %15, 0
  br i1 %cmp14, label %if.then16, label %if.end18

if.then16:                                        ; preds = %if.end13
  %16 = load ptr, ptr %key.addr, align 8
  %dp = getelementptr inbounds %struct.ecc_key, ptr %16, i32 0, i32 4
  %17 = load ptr, ptr %dp, align 8
  %call17 = call i32 @wc_ecc_curve_load(ptr noundef %17, ptr noundef %curve, i8 noundef zeroext 59)
  store i32 %call17, ptr %err, align 4
  br label %if.end18

if.end18:                                         ; preds = %if.then16, %if.end13
  %18 = load i32, ptr %err, align 4
  %cmp19 = icmp eq i32 %18, 0
  br i1 %cmp19, label %if.then21, label %if.end26

if.then21:                                        ; preds = %if.end18
  %19 = load ptr, ptr %rng.addr, align 8
  %20 = load ptr, ptr %key.addr, align 8
  %dp22 = getelementptr inbounds %struct.ecc_key, ptr %20, i32 0, i32 4
  %21 = load ptr, ptr %dp22, align 8
  %size = getelementptr inbounds %struct.ecc_set_type, ptr %21, i32 0, i32 0
  %22 = load i32, ptr %size, align 8
  %23 = load ptr, ptr %key.addr, align 8
  %k23 = getelementptr inbounds %struct.ecc_key, ptr %23, i32 0, i32 7
  %arraydecay24 = getelementptr inbounds [1 x %struct.sp_int], ptr %k23, i64 0, i64 0
  %24 = load ptr, ptr %curve, align 8
  %order = getelementptr inbounds %struct.ecc_curve_spec, ptr %24, i32 0, i32 3
  %25 = load ptr, ptr %order, align 8
  %call25 = call i32 @wc_ecc_gen_k(ptr noundef %19, i32 noundef %22, ptr noundef %arraydecay24, ptr noundef %25)
  store i32 %call25, ptr %err, align 4
  br label %if.end26

if.end26:                                         ; preds = %if.then21, %if.end18
  %26 = load i32, ptr %err, align 4
  %cmp27 = icmp eq i32 %26, 0
  br i1 %cmp27, label %if.then29, label %if.end31

if.then29:                                        ; preds = %if.end26
  %27 = load ptr, ptr %key.addr, align 8
  %28 = load ptr, ptr %curve, align 8
  %29 = load ptr, ptr %rng.addr, align 8
  %call30 = call i32 @ecc_make_pub_ex(ptr noundef %27, ptr noundef %28, ptr noundef null, ptr noundef %29)
  store i32 %call30, ptr %err, align 4
  br label %if.end31

if.end31:                                         ; preds = %if.then29, %if.end26
  %30 = load i32, ptr %err, align 4
  %cmp32 = icmp eq i32 %30, 0
  br i1 %cmp32, label %if.then34, label %if.else

if.then34:                                        ; preds = %if.end31
  %31 = load ptr, ptr %key.addr, align 8
  %type = getelementptr inbounds %struct.ecc_key, ptr %31, i32 0, i32 0
  store i32 2, ptr %type, align 8
  br label %if.end37

if.else:                                          ; preds = %if.end31
  %32 = load ptr, ptr %key.addr, align 8
  %k35 = getelementptr inbounds %struct.ecc_key, ptr %32, i32 0, i32 7
  %arraydecay36 = getelementptr inbounds [1 x %struct.sp_int], ptr %k35, i64 0, i64 0
  call void @sp_forcezero(ptr noundef %arraydecay36)
  br label %if.end37

if.end37:                                         ; preds = %if.else, %if.then34
  %33 = load ptr, ptr %curve, align 8
  call void @wc_ecc_curve_free(ptr noundef %33)
  br label %do.body38

do.body38:                                        ; preds = %if.end37
  br label %do.end39

do.end39:                                         ; preds = %do.body38
  %34 = load i32, ptr %err, align 4
  store i32 %34, ptr %retval, align 4
  br label %return

return:                                           ; preds = %do.end39, %if.then3, %if.then
  %35 = load i32, ptr %retval, align 4
  ret i32 %35
}