; Function Attrs: nounwind uwtable
define internal fastcc i32 @_ecc_make_key_ex(ptr noundef %rng, i32 noundef %keysize, ptr noundef %key, i32 noundef %curve_id, i32 noundef %flags) unnamed_addr #2 {
entry:
  %spec_ints = alloca [800 x i8], align 16
  %curve_lcl = alloca %struct.ecc_curve_spec, align 8
  %cmp = icmp eq ptr %key, null
  %cmp1 = icmp eq ptr %rng, null
  %or.cond = or i1 %cmp1, %cmp
  br i1 %or.cond, label %return, label %lor.lhs.false.i

lor.lhs.false.i:                                  ; preds = %entry
  %state.i = getelementptr inbounds nuw i8, ptr %key, i64 8
  store i32 0, ptr %state.i, align 8
  %cmp1.i = icmp slt i32 %keysize, 1
  %cmp2.i = icmp slt i32 %curve_id, 0
  %or.cond.i = and i1 %cmp1.i, %cmp2.i
  br i1 %or.cond.i, label %return, label %if.end.i

if.end.i:                                         ; preds = %lor.lhs.false.i
  %cmp3.i = icmp sgt i32 %keysize, 66
  br i1 %cmp3.i, label %return, label %if.end5.i

if.end5.i:                                        ; preds = %if.end.i
  %idx.i = getelementptr inbounds nuw i8, ptr %key, i64 4
  %0 = load i32, ptr %idx.i, align 4
  %cmp6.not.i = icmp eq i32 %0, -1
  br i1 %cmp6.not.i, label %if.end4, label %if.then7.i

if.then7.i:                                       ; preds = %if.end5.i
  store i32 0, ptr %idx.i, align 4
  %dp.i = getelementptr inbounds nuw i8, ptr %key, i64 16
  store ptr null, ptr %dp.i, align 8
  %cmp10.i = icmp sgt i32 %curve_id, 0
  br i1 %cmp10.i, label %for.body.us.i, label %if.then7.split.i

for.body.us.i:                                    ; preds = %if.then7.i, %for.inc.us.i
  %indvars.iv33.i = phi i64 [ %indvars.iv.next34.i, %for.inc.us.i ], [ 0, %if.then7.i ]
  %arrayidx19.us.i = phi ptr [ %arrayidx.us.i, %for.inc.us.i ], [ @ecc_sets, %if.then7.i ]
  %id.us.i = getelementptr inbounds nuw i8, ptr %arrayidx19.us.i, i64 4
  %1 = load i32, ptr %id.us.i, align 4
  %cmp14.us.i = icmp eq i32 %curve_id, %1
  br i1 %cmp14.us.i, label %if.end29.loopexit.i, label %for.inc.us.i

for.inc.us.i:                                     ; preds = %for.body.us.i
  %indvars.iv.next34.i = add nuw nsw i64 %indvars.iv33.i, 1
  %arrayidx.us.i = getelementptr inbounds nuw [6 x %struct.ecc_set_type], ptr @ecc_sets, i64 0, i64 %indvars.iv.next34.i
  %exitcond36.i = icmp eq i64 %indvars.iv.next34.i, 5
  br i1 %exitcond36.i, label %return, label %for.body.us.i, !llvm.loop !6

if.then7.split.i:                                 ; preds = %if.then7.i
  %cmp20.not23.i = icmp sgt i32 %keysize, 28
  br i1 %cmp20.not23.i, label %for.inc.i, label %if.end29.i

for.body.i:                                       ; preds = %for.inc.i
  %indvars.iv.next.i = add nuw nsw i64 %indvars.iv.i, 1
  %arrayidx.i = getelementptr inbounds nuw [6 x %struct.ecc_set_type], ptr @ecc_sets, i64 0, i64 %indvars.iv.next.i
  %2 = load i32, ptr %arrayidx.i, align 8
  %cmp20.not.i = icmp sgt i32 %keysize, %2
  br i1 %cmp20.not.i, label %for.inc.i, label %if.end29.loopexit27.i, !llvm.loop !6

for.inc.i:                                        ; preds = %if.then7.split.i, %for.body.i
  %indvars.iv.i = phi i64 [ %indvars.iv.next.i, %for.body.i ], [ 0, %if.then7.split.i ]
  %exitcond.i = icmp eq i64 %indvars.iv.i, 4
  br i1 %exitcond.i, label %return, label %for.body.i, !llvm.loop !6

if.end29.loopexit.i:                              ; preds = %for.body.us.i
  %3 = trunc nuw nsw i64 %indvars.iv33.i to i32
  br label %if.end29.i

if.end29.loopexit27.i:                            ; preds = %for.body.i
  %4 = trunc nuw nsw i64 %indvars.iv.next.i to i32
  br label %if.end29.i

if.end29.i:                                       ; preds = %if.end29.loopexit27.i, %if.end29.loopexit.i, %if.then7.split.i
  %.us-phi.i = phi i32 [ 0, %if.then7.split.i ], [ %3, %if.end29.loopexit.i ], [ %4, %if.end29.loopexit27.i ]
  %.us-phi20.i = phi ptr [ @ecc_sets, %if.then7.split.i ], [ %arrayidx19.us.i, %if.end29.loopexit.i ], [ %arrayidx.i, %if.end29.loopexit27.i ]
  store i32 %.us-phi.i, ptr %idx.i, align 4
  store ptr %.us-phi20.i, ptr %dp.i, align 8
  br label %if.end4

if.end4:                                          ; preds = %if.end29.i, %if.end5.i
  %conv5 = and i32 %flags, 255
  %flags6 = getelementptr inbounds nuw i8, ptr %key, i64 12
  store i32 %conv5, ptr %flags6, align 4
  call void @llvm.memset.p0.i64(ptr noundef nonnull align 8 dereferenceable(72) %curve_lcl, i8 0, i64 72, i1 false)
  %spec_ints7 = getelementptr inbounds nuw i8, ptr %curve_lcl, i64 48
  store ptr %spec_ints, ptr %spec_ints7, align 8
  %spec_count = getelementptr inbounds nuw i8, ptr %curve_lcl, i64 56
  store i32 5, ptr %spec_count, align 8
  %k = getelementptr inbounds nuw i8, ptr %key, i64 3152
  %call9 = call i32 @sp_init(ptr noundef nonnull %k) #19
  %cmp14 = icmp eq i32 %call9, 0
  br i1 %cmp14, label %if.end18, label %if.else

if.end18:                                         ; preds = %if.end4
  %dp = getelementptr inbounds nuw i8, ptr %key, i64 16
  %5 = load ptr, ptr %dp, align 8
  %call17 = call fastcc i32 @wc_ecc_curve_load(ptr noundef %5, ptr nonnull %curve_lcl, i8 noundef zeroext 59)
  %cmp19 = icmp eq i32 %call17, 0
  br i1 %cmp19, label %if.end26, label %if.else

if.end26:                                         ; preds = %if.end18
  %6 = load ptr, ptr %dp, align 8
  %7 = load i32, ptr %6, align 8
  %order = getelementptr inbounds nuw i8, ptr %curve_lcl, i64 24
  %8 = load ptr, ptr %order, align 8
  %call25 = call i32 @wc_ecc_gen_k(ptr noundef %rng, i32 noundef %7, ptr noundef nonnull %k, ptr noundef %8)
  %cmp27 = icmp eq i32 %call25, 0
  br i1 %cmp27, label %if.end31, label %if.else

if.end31:                                         ; preds = %if.end26
  %call30 = call fastcc i32 @ecc_make_pub_ex(ptr noundef nonnull %key, ptr noundef nonnull %curve_lcl, ptr noundef null, ptr noundef %rng)
  %cmp32 = icmp eq i32 %call30, 0
  br i1 %cmp32, label %if.then34, label %if.else

if.then34:                                        ; preds = %if.end31
  store i32 2, ptr %key, align 8
  br label %if.end37

if.else:                                          ; preds = %if.end4, %if.end18, %if.end26, %if.end31
  %err.231 = phi i32 [ %call30, %if.end31 ], [ %call25, %if.end26 ], [ %call17, %if.end18 ], [ %call9, %if.end4 ]
  call void @sp_forcezero(ptr noundef nonnull %k) #19
  br label %if.end37

if.end37:                                         ; preds = %if.else, %if.then34
  %err.230 = phi i32 [ %err.231, %if.else ], [ 0, %if.then34 ]
  call fastcc void @wc_ecc_curve_free(ptr noundef nonnull %curve_lcl)
  br label %return

return:                                           ; preds = %for.inc.i, %for.inc.us.i, %if.end.i, %lor.lhs.false.i, %entry, %if.end37
  %retval.0 = phi i32 [ %err.230, %if.end37 ], [ -173, %entry ], [ -170, %if.end.i ], [ -173, %lor.lhs.false.i ], [ -172, %for.inc.us.i ], [ -172, %for.inc.i ]
  ret i32 %retval.0
}